target datalayout = "e-m:e-p270:32:32-p271:32:32-p272:64:64-i64:64-i128:128-f80:128-n8:16:32:64-S128"
target triple = "x86_64-pc-linux-gnu"

%struct.jpeg_decompress_struct = type { ptr, ptr, ptr, ptr, i32, i32, ptr, i32, i32, i32, i32, i32, i32, i32, double, i32, i32, i32, i32, i32, i32, i32, i32, i32, i32, i32, i32, i32, i32, i32, i32, i32, i32, ptr, i32, i32, i32, i32, i32, ptr, [4 x ptr], [4 x ptr], [4 x ptr], i32, ptr, i32, i32, [16 x i8], [16 x i8], [16 x i8], i32, i32, i8, i8, i8, i16, i16, i32, i8, i32, ptr, i32, i32, i32, i32, ptr, i32, [4 x ptr], i32, i32, i32, [10 x i32], i32, i32, i32, i32, i32, ptr, ptr, ptr, ptr, ptr, ptr, ptr, ptr, ptr, ptr, ptr }
%struct.ppm_dest_struct = type { %struct.djpeg_dest_struct, ptr, ptr, i64, i32 }
%struct.djpeg_dest_struct = type { ptr, ptr, ptr, ptr, ptr, ptr, ptr, ptr, i32 }

@rgb_red = internal constant [17 x i32] [i32 -1, i32 -1, i32 0, i32 -1, i32 -1, i32 -1, i32 0, i32 0, i32 2, i32 2, i32 3, i32 1, i32 0, i32 2, i32 3, i32 1, i32 -1], align 16
@rgb_green = internal constant [17 x i32] [i32 -1, i32 -1, i32 1, i32 -1, i32 -1, i32 -1, i32 1, i32 1, i32 1, i32 1, i32 2, i32 2, i32 1, i32 1, i32 2, i32 2, i32 -1], align 16
@rgb_blue = internal constant [17 x i32] [i32 -1, i32 -1, i32 2, i32 -1, i32 -1, i32 -1, i32 2, i32 2, i32 0, i32 0, i32 1, i32 3, i32 2, i32 0, i32 1, i32 3, i32 -1], align 16
@rgb_pixelsize = internal constant [17 x i32] [i32 -1, i32 -1, i32 3, i32 -1, i32 -1, i32 -1, i32 3, i32 4, i32 3, i32 4, i32 4, i32 4, i32 4, i32 4, i32 4, i32 4, i32 -1], align 16

; Function Attrs: nounwind uwtable
define internal void @put_rgb(ptr noundef %0, ptr noundef %1, i32 noundef %2) #0 {
  %4 = alloca ptr, align 8
  %5 = alloca ptr, align 8
  %6 = alloca i32, align 4
  %7 = alloca ptr, align 8
  %8 = alloca ptr, align 8
  %9 = alloca ptr, align 8
  %10 = alloca i32, align 4
  %11 = alloca i32, align 4
  %12 = alloca i32, align 4
  %13 = alloca i32, align 4
  %14 = alloca i32, align 4
  store ptr %0, ptr %4, align 8, !tbaa !4
  store ptr %1, ptr %5, align 8, !tbaa !61
  store i32 %2, ptr %6, align 4, !tbaa !68
  call void @llvm.lifetime.start.p0(i64 8, ptr %7) #6
  %15 = load ptr, ptr %5, align 8, !tbaa !61
  store ptr %15, ptr %7, align 8, !tbaa !42
  call void @llvm.lifetime.start.p0(i64 8, ptr %8) #6
  call void @llvm.lifetime.start.p0(i64 8, ptr %9) #6
  call void @llvm.lifetime.start.p0(i64 4, ptr %10) #6
  call void @llvm.lifetime.start.p0(i64 4, ptr %11) #6
  %16 = load ptr, ptr %4, align 8, !tbaa !4
  %17 = getelementptr inbounds nuw %struct.jpeg_decompress_struct, ptr %16, i32 0, i32 11
  %18 = load i32, ptr %17, align 8, !tbaa !53
  %19 = zext i32 %18 to i64
  %20 = getelementptr inbounds nuw [17 x i32], ptr @rgb_red, i64 0, i64 %19
  %21 = load i32, ptr %20, align 4, !tbaa !68
  store i32 %21, ptr %11, align 4, !tbaa !68
  call void @llvm.lifetime.start.p0(i64 4, ptr %12) #6
  %22 = load ptr, ptr %4, align 8, !tbaa !4
  %23 = getelementptr inbounds nuw %struct.jpeg_decompress_struct, ptr %22, i32 0, i32 11
  %24 = load i32, ptr %23, align 8, !tbaa !53
  %25 = zext i32 %24 to i64
  %26 = getelementptr inbounds nuw [17 x i32], ptr @rgb_green, i64 0, i64 %25
  %27 = load i32, ptr %26, align 4, !tbaa !68
  store i32 %27, ptr %12, align 4, !tbaa !68
  call void @llvm.lifetime.start.p0(i64 4, ptr %13) #6
  %28 = load ptr, ptr %4, align 8, !tbaa !4
  %29 = getelementptr inbounds nuw %struct.jpeg_decompress_struct, ptr %28, i32 0, i32 11
  %30 = load i32, ptr %29, align 8, !tbaa !53
  %31 = zext i32 %30 to i64
  %32 = getelementptr inbounds nuw [17 x i32], ptr @rgb_blue, i64 0, i64 %31
  %33 = load i32, ptr %32, align 4, !tbaa !68
  store i32 %33, ptr %13, align 4, !tbaa !68
  call void @llvm.lifetime.start.p0(i64 4, ptr %14) #6
  %34 = load ptr, ptr %4, align 8, !tbaa !4
  %35 = getelementptr inbounds nuw %struct.jpeg_decompress_struct, ptr %34, i32 0, i32 11
  %36 = load i32, ptr %35, align 8, !tbaa !53
  %37 = zext i32 %36 to i64
  %38 = getelementptr inbounds nuw [17 x i32], ptr @rgb_pixelsize, i64 0, i64 %37
  %39 = load i32, ptr %38, align 4, !tbaa !68
  store i32 %39, ptr %14, align 4, !tbaa !68
  %40 = load ptr, ptr %7, align 8, !tbaa !42
  %41 = getelementptr inbounds nuw %struct.ppm_dest_struct, ptr %40, i32 0, i32 0
  %42 = getelementptr inbounds nuw %struct.djpeg_dest_struct, ptr %41, i32 0, i32 5
  %43 = load ptr, ptr %42, align 8, !tbaa !57
  %44 = getelementptr inbounds ptr, ptr %43, i64 0
  %45 = load ptr, ptr %44, align 8, !tbaa !69
  store ptr %45, ptr %9, align 8, !tbaa !69
  %46 = load ptr, ptr %7, align 8, !tbaa !42
  %47 = getelementptr inbounds nuw %struct.ppm_dest_struct, ptr %46, i32 0, i32 1
  %48 = load ptr, ptr %47, align 8, !tbaa !51
  store ptr %48, ptr %8, align 8, !tbaa !69
  %49 = load ptr, ptr %4, align 8, !tbaa !4
  %50 = getelementptr inbounds nuw %struct.jpeg_decompress_struct, ptr %49, i32 0, i32 27
  %51 = load i32, ptr %50, align 8, !tbaa !55
  store i32 %51, ptr %10, align 4, !tbaa !68
  br label %52

52:                                               ; preds = %81, %3
  %53 = load i32, ptr %10, align 4, !tbaa !68
  %54 = icmp ugt i32 %53, 0
  br i1 %54, label %55, label %84

55:                                               ; preds = %52
  %56 = load ptr, ptr %9, align 8, !tbaa !69
  %57 = load i32, ptr %11, align 4, !tbaa !68
  %58 = sext i32 %57 to i64
  %59 = getelementptr inbounds i8, ptr %56, i64 %58
  %60 = load i8, ptr %59, align 1, !tbaa !37
  %61 = load ptr, ptr %8, align 8, !tbaa !69
  %62 = getelementptr inbounds nuw i8, ptr %61, i32 1
  store ptr %62, ptr %8, align 8, !tbaa !69
  store i8 %60, ptr %61, align 1, !tbaa !37
  %63 = load ptr, ptr %9, align 8, !tbaa !69
  %64 = load i32, ptr %12, align 4, !tbaa !68
  %65 = sext i32 %64 to i64
  %66 = getelementptr inbounds i8, ptr %63, i64 %65
  %67 = load i8, ptr %66, align 1, !tbaa !37
  %68 = load ptr, ptr %8, align 8, !tbaa !69
  %69 = getelementptr inbounds nuw i8, ptr %68, i32 1
  store ptr %69, ptr %8, align 8, !tbaa !69
  store i8 %67, ptr %68, align 1, !tbaa !37
  %70 = load ptr, ptr %9, align 8, !tbaa !69
  %71 = load i32, ptr %13, align 4, !tbaa !68
  %72 = sext i32 %71 to i64
  %73 = getelementptr inbounds i8, ptr %70, i64 %72
  %74 = load i8, ptr %73, align 1, !tbaa !37
  %75 = load ptr, ptr %8, align 8, !tbaa !69
  %76 = getelementptr inbounds nuw i8, ptr %75, i32 1
  store ptr %76, ptr %8, align 8, !tbaa !69
  store i8 %74, ptr %75, align 1, !tbaa !37
  %77 = load i32, ptr %14, align 4, !tbaa !68
  %78 = load ptr, ptr %9, align 8, !tbaa !69
  %79 = sext i32 %77 to i64
  %80 = getelementptr inbounds i8, ptr %78, i64 %79
  store ptr %80, ptr %9, align 8, !tbaa !69
  br label %81

81:                                               ; preds = %55
  %82 = load i32, ptr %10, align 4, !tbaa !68
  %83 = add i32 %82, -1
  store i32 %83, ptr %10, align 4, !tbaa !68
  br label %52, !llvm.loop !70

84:                                               ; preds = %52
  %85 = load ptr, ptr %7, align 8, !tbaa !42
  %86 = getelementptr inbounds nuw %struct.ppm_dest_struct, ptr %85, i32 0, i32 1
  %87 = load ptr, ptr %86, align 8, !tbaa !51
  %88 = load ptr, ptr %7, align 8, !tbaa !42
  %89 = getelementptr inbounds nuw %struct.ppm_dest_struct, ptr %88, i32 0, i32 3
  %90 = load i64, ptr %89, align 8, !tbaa !50
  %91 = load ptr, ptr %7, align 8, !tbaa !42
  %92 = getelementptr inbounds nuw %struct.ppm_dest_struct, ptr %91, i32 0, i32 0
  %93 = getelementptr inbounds nuw %struct.djpeg_dest_struct, ptr %92, i32 0, i32 4
  %94 = load ptr, ptr %93, align 8, !tbaa !63
  %95 = call i64 @fwrite(ptr noundef %87, i64 noundef 1, i64 noundef %90, ptr noundef %94)
  call void @llvm.lifetime.end.p0(i64 4, ptr %14) #6
  call void @llvm.lifetime.end.p0(i64 4, ptr %13) #6
  call void @llvm.lifetime.end.p0(i64 4, ptr %12) #6
  call void @llvm.lifetime.end.p0(i64 4, ptr %11) #6
  call void @llvm.lifetime.end.p0(i64 4, ptr %10) #6
  call void @llvm.lifetime.end.p0(i64 8, ptr %9) #6
  call void @llvm.lifetime.end.p0(i64 8, ptr %8) #6
  call void @llvm.lifetime.end.p0(i64 8, ptr %7) #6
  ret void
}