; Function Attrs: nofree nounwind uwtable
define internal void @put_rgb(ptr noundef readonly captures(none) %0, ptr noundef readonly captures(none) %1, i32 %2) #3 {
  %4 = getelementptr inbounds nuw i8, ptr %1, i64 72
  %5 = getelementptr inbounds nuw i8, ptr %0, i64 136
  %6 = load i32, ptr %5, align 8, !tbaa !52
  %.not25 = icmp eq i32 %6, 0
  br i1 %.not25, label %._crit_edge, label %.lr.ph

.lr.ph:                                           ; preds = %3
  %7 = load ptr, ptr %4, align 8, !tbaa !48
  %8 = getelementptr inbounds nuw i8, ptr %1, i64 40
  %9 = load ptr, ptr %8, align 8, !tbaa !54
  %10 = load ptr, ptr %9, align 8, !tbaa !63
  %11 = getelementptr inbounds nuw i8, ptr %0, i64 64
  %12 = load i32, ptr %11, align 8, !tbaa !50
  %13 = zext i32 %12 to i64
  %14 = getelementptr inbounds nuw [17 x i32], ptr @rgb_pixelsize, i64 0, i64 %13
  %15 = load i32, ptr %14, align 4, !tbaa !64
  %16 = getelementptr inbounds nuw [17 x i32], ptr @rgb_blue, i64 0, i64 %13
  %17 = load i32, ptr %16, align 4, !tbaa !64
  %18 = getelementptr inbounds nuw [17 x i32], ptr @rgb_green, i64 0, i64 %13
  %19 = load i32, ptr %18, align 4, !tbaa !64
  %20 = getelementptr inbounds nuw [17 x i32], ptr @rgb_red, i64 0, i64 %13
  %21 = load i32, ptr %20, align 4, !tbaa !64
  %22 = sext i32 %21 to i64
  %23 = sext i32 %19 to i64
  %24 = sext i32 %17 to i64
  %25 = sext i32 %15 to i64
  br label %26

26:                                               ; preds = %.lr.ph, %26
  %.028 = phi ptr [ %7, %.lr.ph ], [ %35, %26 ]
  %.02327 = phi ptr [ %10, %.lr.ph ], [ %36, %26 ]
  %.02426 = phi i32 [ %6, %.lr.ph ], [ %37, %26 ]
  %27 = getelementptr inbounds i8, ptr %.02327, i64 %22
  %28 = load i8, ptr %27, align 1, !tbaa !35
  %29 = getelementptr inbounds nuw i8, ptr %.028, i64 1
  store i8 %28, ptr %.028, align 1, !tbaa !35
  %30 = getelementptr inbounds i8, ptr %.02327, i64 %23
  %31 = load i8, ptr %30, align 1, !tbaa !35
  %32 = getelementptr inbounds nuw i8, ptr %.028, i64 2
  store i8 %31, ptr %29, align 1, !tbaa !35
  %33 = getelementptr inbounds i8, ptr %.02327, i64 %24
  %34 = load i8, ptr %33, align 1, !tbaa !35
  %35 = getelementptr inbounds nuw i8, ptr %.028, i64 3
  store i8 %34, ptr %32, align 1, !tbaa !35
  %36 = getelementptr inbounds i8, ptr %.02327, i64 %25
  %37 = add i32 %.02426, -1
  %.not = icmp eq i32 %37, 0
  br i1 %.not, label %._crit_edge, label %26, !llvm.loop !65

._crit_edge:                                      ; preds = %26, %3
  %38 = load ptr, ptr %4, align 8, !tbaa !48
  %39 = getelementptr inbounds nuw i8, ptr %1, i64 88
  %40 = load i64, ptr %39, align 8, !tbaa !47
  %41 = getelementptr inbounds nuw i8, ptr %1, i64 32
  %42 = load ptr, ptr %41, align 8, !tbaa !58
  %43 = tail call i64 @fwrite(ptr noundef %38, i64 noundef 1, i64 noundef %40, ptr noundef %42)
  ret void
}